target datalayout = "e-m:e-p270:32:32-p271:32:32-p272:64:64-i64:64-i128:128-f80:128-n8:16:32:64-S128"
target triple = "x86_64-pc-linux-gnu"

%struct.Vec_Int_t_ = type { i32, i32, ptr }

; Function Attrs: inlinehint nounwind uwtable
define internal void @Vec_IntGrow(ptr noundef %0, i32 noundef %1) #2 {
  %3 = alloca ptr, align 8
  %4 = alloca i32, align 4
  store ptr %0, ptr %3, align 8, !tbaa !12
  store i32 %1, ptr %4, align 4, !tbaa !10
  %5 = load ptr, ptr %3, align 8, !tbaa !12
  %6 = getelementptr inbounds nuw %struct.Vec_Int_t_, ptr %5, i32 0, i32 0
  %7 = load i32, ptr %6, align 8, !tbaa !17
  %8 = load i32, ptr %4, align 4, !tbaa !10
  %9 = icmp sge i32 %7, %8
  br i1 %9, label %10, label %11

10:                                               ; preds = %2
  br label %36

11:                                               ; preds = %2
  %12 = load ptr, ptr %3, align 8, !tbaa !12
  %13 = getelementptr inbounds nuw %struct.Vec_Int_t_, ptr %12, i32 0, i32 2
  %14 = load ptr, ptr %13, align 8, !tbaa !18
  %15 = icmp ne ptr %14, null
  br i1 %15, label %16, label %24

16:                                               ; preds = %11
  %17 = load ptr, ptr %3, align 8, !tbaa !12
  %18 = getelementptr inbounds nuw %struct.Vec_Int_t_, ptr %17, i32 0, i32 2
  %19 = load ptr, ptr %18, align 8, !tbaa !18
  %20 = load i32, ptr %4, align 4, !tbaa !10
  %21 = sext i32 %20 to i64
  %22 = mul i64 4, %21
  %23 = call ptr @realloc(ptr noundef %19, i64 noundef %22) #17
  br label %29

24:                                               ; preds = %11
  %25 = load i32, ptr %4, align 4, !tbaa !10
  %26 = sext i32 %25 to i64
  %27 = mul i64 4, %26
  %28 = call noalias ptr @malloc(i64 noundef %27) #15
  br label %29

29:                                               ; preds = %24, %16
  %30 = phi ptr [ %23, %16 ], [ %28, %24 ]
  %31 = load ptr, ptr %3, align 8, !tbaa !12
  %32 = getelementptr inbounds nuw %struct.Vec_Int_t_, ptr %31, i32 0, i32 2
  store ptr %30, ptr %32, align 8, !tbaa !18
  %33 = load i32, ptr %4, align 4, !tbaa !10
  %34 = load ptr, ptr %3, align 8, !tbaa !12
  %35 = getelementptr inbounds nuw %struct.Vec_Int_t_, ptr %34, i32 0, i32 0
  store i32 %33, ptr %35, align 8, !tbaa !17
  br label %36

36:                                               ; preds = %29, %10
  ret void
}

; Function Attrs: inlinehint nounwind uwtable
define internal i32 @Vec_IntSize(ptr noundef %0) #2 {
  %2 = alloca ptr, align 8
  store ptr %0, ptr %2, align 8, !tbaa !12
  %3 = load ptr, ptr %2, align 8, !tbaa !12
  %4 = getelementptr inbounds nuw %struct.Vec_Int_t_, ptr %3, i32 0, i32 1
  %5 = load i32, ptr %4, align 4, !tbaa !14
  ret i32 %5
}

; Function Attrs: inlinehint nounwind uwtable
define internal void @Vec_IntPush(ptr noundef %0, i32 noundef %1) #2 {
  %3 = alloca ptr, align 8
  %4 = alloca i32, align 4
  store ptr %0, ptr %3, align 8, !tbaa !12
  store i32 %1, ptr %4, align 4, !tbaa !10
  %5 = load ptr, ptr %3, align 8, !tbaa !12
  %6 = getelementptr inbounds nuw %struct.Vec_Int_t_, ptr %5, i32 0, i32 1
  %7 = load i32, ptr %6, align 4, !tbaa !14
  %8 = load ptr, ptr %3, align 8, !tbaa !12
  %9 = getelementptr inbounds nuw %struct.Vec_Int_t_, ptr %8, i32 0, i32 0
  %10 = load i32, ptr %9, align 8, !tbaa !17
  %11 = icmp eq i32 %7, %10
  br i1 %11, label %12, label %26

12:                                               ; preds = %2
  %13 = load ptr, ptr %3, align 8, !tbaa !12
  %14 = getelementptr inbounds nuw %struct.Vec_Int_t_, ptr %13, i32 0, i32 0
  %15 = load i32, ptr %14, align 8, !tbaa !17
  %16 = icmp slt i32 %15, 16
  br i1 %16, label %17, label %19

17:                                               ; preds = %12
  %18 = load ptr, ptr %3, align 8, !tbaa !12
  call void @Vec_IntGrow(ptr noundef %18, i32 noundef 16)
  br label %25

19:                                               ; preds = %12
  %20 = load ptr, ptr %3, align 8, !tbaa !12
  %21 = load ptr, ptr %3, align 8, !tbaa !12
  %22 = getelementptr inbounds nuw %struct.Vec_Int_t_, ptr %21, i32 0, i32 0
  %23 = load i32, ptr %22, align 8, !tbaa !17
  %24 = mul nsw i32 2, %23
  call void @Vec_IntGrow(ptr noundef %20, i32 noundef %24)
  br label %25

25:                                               ; preds = %19, %17
  br label %26

26:                                               ; preds = %25, %2
  %27 = load i32, ptr %4, align 4, !tbaa !10
  %28 = load ptr, ptr %3, align 8, !tbaa !12
  %29 = getelementptr inbounds nuw %struct.Vec_Int_t_, ptr %28, i32 0, i32 2
  %30 = load ptr, ptr %29, align 8, !tbaa !18
  %31 = load ptr, ptr %3, align 8, !tbaa !12
  %32 = getelementptr inbounds nuw %struct.Vec_Int_t_, ptr %31, i32 0, i32 1
  %33 = load i32, ptr %32, align 4, !tbaa !14
  %34 = add nsw i32 %33, 1
  store i32 %34, ptr %32, align 4, !tbaa !14
  %35 = sext i32 %33 to i64
  %36 = getelementptr inbounds i32, ptr %30, i64 %35
  store i32 %27, ptr %36, align 4, !tbaa !10
  ret void
}

; Function Attrs: inlinehint nounwind uwtable
define internal void @Vec_IntClear(ptr noundef %0) #2 {
  %2 = alloca ptr, align 8
  store ptr %0, ptr %2, align 8, !tbaa !12
  %3 = load ptr, ptr %2, align 8, !tbaa !12
  %4 = getelementptr inbounds nuw %struct.Vec_Int_t_, ptr %3, i32 0, i32 1
  store i32 0, ptr %4, align 4, !tbaa !14
  ret void
}

; Function Attrs: inlinehint nounwind uwtable
define internal i32 @Vec_IntTwoFindCommon(ptr noundef %0, ptr noundef %1, ptr noundef %2) #2 {
  %4 = alloca ptr, align 8
  %5 = alloca ptr, align 8
  %6 = alloca ptr, align 8
  %7 = alloca ptr, align 8
  %8 = alloca ptr, align 8
  %9 = alloca ptr, align 8
  %10 = alloca ptr, align 8
  store ptr %0, ptr %4, align 8, !tbaa !12
  store ptr %1, ptr %5, align 8, !tbaa !12
  store ptr %2, ptr %6, align 8, !tbaa !12
  call void @llvm.lifetime.start.p0(i64 8, ptr %7) #14
  %11 = load ptr, ptr %4, align 8, !tbaa !12
  %12 = getelementptr inbounds nuw %struct.Vec_Int_t_, ptr %11, i32 0, i32 2
  %13 = load ptr, ptr %12, align 8, !tbaa !18
  store ptr %13, ptr %7, align 8, !tbaa !61
  call void @llvm.lifetime.start.p0(i64 8, ptr %8) #14
  %14 = load ptr, ptr %5, align 8, !tbaa !12
  %15 = getelementptr inbounds nuw %struct.Vec_Int_t_, ptr %14, i32 0, i32 2
  %16 = load ptr, ptr %15, align 8, !tbaa !18
  store ptr %16, ptr %8, align 8, !tbaa !61
  call void @llvm.lifetime.start.p0(i64 8, ptr %9) #14
  %17 = load ptr, ptr %4, align 8, !tbaa !12
  %18 = getelementptr inbounds nuw %struct.Vec_Int_t_, ptr %17, i32 0, i32 2
  %19 = load ptr, ptr %18, align 8, !tbaa !18
  %20 = load ptr, ptr %4, align 8, !tbaa !12
  %21 = getelementptr inbounds nuw %struct.Vec_Int_t_, ptr %20, i32 0, i32 1
  %22 = load i32, ptr %21, align 4, !tbaa !14
  %23 = sext i32 %22 to i64
  %24 = getelementptr inbounds i32, ptr %19, i64 %23
  store ptr %24, ptr %9, align 8, !tbaa !61
  call void @llvm.lifetime.start.p0(i64 8, ptr %10) #14
  %25 = load ptr, ptr %5, align 8, !tbaa !12
  %26 = getelementptr inbounds nuw %struct.Vec_Int_t_, ptr %25, i32 0, i32 2
  %27 = load ptr, ptr %26, align 8, !tbaa !18
  %28 = load ptr, ptr %5, align 8, !tbaa !12
  %29 = getelementptr inbounds nuw %struct.Vec_Int_t_, ptr %28, i32 0, i32 1
  %30 = load i32, ptr %29, align 4, !tbaa !14
  %31 = sext i32 %30 to i64
  %32 = getelementptr inbounds i32, ptr %27, i64 %31
  store ptr %32, ptr %10, align 8, !tbaa !61
  %33 = load ptr, ptr %6, align 8, !tbaa !12
  call void @Vec_IntClear(ptr noundef %33)
  br label %34

34:                                               ; preds = %71, %3
  %35 = load ptr, ptr %7, align 8, !tbaa !61
  %36 = load ptr, ptr %9, align 8, !tbaa !61
  %37 = icmp ult ptr %35, %36
  br i1 %37, label %38, label %42

38:                                               ; preds = %34
  %39 = load ptr, ptr %8, align 8, !tbaa !61
  %40 = load ptr, ptr %10, align 8, !tbaa !61
  %41 = icmp ult ptr %39, %40
  br label %42

42:                                               ; preds = %38, %34
  %43 = phi i1 [ false, %34 ], [ %41, %38 ]
  br i1 %43, label %44, label %72

44:                                               ; preds = %42
  %45 = load ptr, ptr %7, align 8, !tbaa !61
  %46 = load i32, ptr %45, align 4, !tbaa !10
  %47 = load ptr, ptr %8, align 8, !tbaa !61
  %48 = load i32, ptr %47, align 4, !tbaa !10
  %49 = icmp eq i32 %46, %48
  br i1 %49, label %50, label %58

50:                                               ; preds = %44
  %51 = load ptr, ptr %6, align 8, !tbaa !12
  %52 = load ptr, ptr %7, align 8, !tbaa !61
  %53 = load i32, ptr %52, align 4, !tbaa !10
  call void @Vec_IntPush(ptr noundef %51, i32 noundef %53)
  %54 = load ptr, ptr %7, align 8, !tbaa !61
  %55 = getelementptr inbounds nuw i32, ptr %54, i32 1
  store ptr %55, ptr %7, align 8, !tbaa !61
  %56 = load ptr, ptr %8, align 8, !tbaa !61
  %57 = getelementptr inbounds nuw i32, ptr %56, i32 1
  store ptr %57, ptr %8, align 8, !tbaa !61
  br label %71

58:                                               ; preds = %44
  %59 = load ptr, ptr %7, align 8, !tbaa !61
  %60 = load i32, ptr %59, align 4, !tbaa !10
  %61 = load ptr, ptr %8, align 8, !tbaa !61
  %62 = load i32, ptr %61, align 4, !tbaa !10
  %63 = icmp slt i32 %60, %62
  br i1 %63, label %64, label %67

64:                                               ; preds = %58
  %65 = load ptr, ptr %7, align 8, !tbaa !61
  %66 = getelementptr inbounds nuw i32, ptr %65, i32 1
  store ptr %66, ptr %7, align 8, !tbaa !61
  br label %70

67:                                               ; preds = %58
  %68 = load ptr, ptr %8, align 8, !tbaa !61
  %69 = getelementptr inbounds nuw i32, ptr %68, i32 1
  store ptr %69, ptr %8, align 8, !tbaa !61
  br label %70

70:                                               ; preds = %67, %64
  br label %71

71:                                               ; preds = %70, %50
  br label %34, !llvm.loop !64

72:                                               ; preds = %42
  %73 = load ptr, ptr %6, align 8, !tbaa !12
  %74 = call i32 @Vec_IntSize(ptr noundef %73)
  call void @llvm.lifetime.end.p0(i64 8, ptr %10) #14
  call void @llvm.lifetime.end.p0(i64 8, ptr %9) #14
  call void @llvm.lifetime.end.p0(i64 8, ptr %8) #14
  call void @llvm.lifetime.end.p0(i64 8, ptr %7) #14
  ret i32 %74
}