; Function Attrs: inlinehint nounwind uwtable
define internal fastcc void @Vec_IntTwoFindCommon(i32 %.4.val, ptr readonly %.8.val, i32 %.4.val1, ptr readonly %.8.val3, ptr noundef captures(none) initializes((4, 8)) %0) unnamed_addr #5 {
  %2 = sext i32 %.4.val to i64
  %3 = getelementptr inbounds i32, ptr %.8.val, i64 %2
  %4 = sext i32 %.4.val1 to i64
  %5 = getelementptr inbounds i32, ptr %.8.val3, i64 %4
  %6 = getelementptr inbounds nuw i8, ptr %0, i64 4
  store i32 0, ptr %6, align 4, !tbaa !28
  %7 = icmp sgt i32 %.4.val, 0
  %8 = icmp sgt i32 %.4.val1, 0
  %9 = select i1 %7, i1 %8, i1 false
  br i1 %9, label %.lr.ph, label %._crit_edge

.lr.ph:                                           ; preds = %1
  %.phi.trans.insert.i = getelementptr inbounds nuw i8, ptr %0, i64 8
  br label %10

10:                                               ; preds = %.lr.ph, %51
  %.06 = phi ptr [ %.8.val, %.lr.ph ], [ %.1, %51 ]
  %.0225 = phi ptr [ %.8.val3, %.lr.ph ], [ %.123, %51 ]
  %11 = load i32, ptr %.06, align 4, !tbaa !31
  %12 = load i32, ptr %.0225, align 4, !tbaa !31
  %13 = icmp eq i32 %11, %12
  br i1 %13, label %14, label %45

14:                                               ; preds = %10
  %15 = load i32, ptr %6, align 4, !tbaa !28
  %16 = load i32, ptr %0, align 8, !tbaa !29
  %17 = icmp eq i32 %15, %16
  br i1 %17, label %18, label %.Vec_IntGrow.exit10_crit_edge.i

.Vec_IntGrow.exit10_crit_edge.i:                  ; preds = %14
  %.pre.i = load ptr, ptr %.phi.trans.insert.i, align 8, !tbaa !30
  br label %Vec_IntPush.exit

18:                                               ; preds = %14
  %19 = icmp slt i32 %15, 16
  br i1 %19, label %20, label %27

20:                                               ; preds = %18
  %21 = load ptr, ptr %.phi.trans.insert.i, align 8, !tbaa !30
  %.not9.i.i = icmp eq ptr %21, null
  br i1 %.not9.i.i, label %24, label %22

22:                                               ; preds = %20
  %23 = tail call dereferenceable_or_null(64) ptr @realloc(ptr noundef nonnull %21, i64 noundef 64) #30
  br label %Vec_IntGrow.exit.i

24:                                               ; preds = %20
  %25 = tail call noalias dereferenceable_or_null(64) ptr @malloc(i64 noundef 64) #31
  br label %Vec_IntGrow.exit.i

Vec_IntGrow.exit.i:                               ; preds = %24, %22
  %26 = phi ptr [ %23, %22 ], [ %25, %24 ]
  store ptr %26, ptr %.phi.trans.insert.i, align 8, !tbaa !30
  store i32 16, ptr %0, align 8, !tbaa !29
  br label %Vec_IntPush.exit

27:                                               ; preds = %18
  %28 = shl nuw nsw i32 %15, 1
  %29 = load ptr, ptr %.phi.trans.insert.i, align 8, !tbaa !30
  %.not9.i9.i = icmp eq ptr %29, null
  %30 = zext nneg i32 %28 to i64
  %31 = shl nuw nsw i64 %30, 2
  br i1 %.not9.i9.i, label %34, label %32

32:                                               ; preds = %27
  %33 = tail call ptr @realloc(ptr noundef nonnull %29, i64 noundef %31) #30
  br label %36

34:                                               ; preds = %27
  %35 = tail call noalias ptr @malloc(i64 noundef %31) #31
  br label %36

36:                                               ; preds = %34, %32
  %37 = phi ptr [ %33, %32 ], [ %35, %34 ]
  store ptr %37, ptr %.phi.trans.insert.i, align 8, !tbaa !30
  store i32 %28, ptr %0, align 8, !tbaa !29
  br label %Vec_IntPush.exit

Vec_IntPush.exit:                                 ; preds = %.Vec_IntGrow.exit10_crit_edge.i, %Vec_IntGrow.exit.i, %36
  %38 = phi ptr [ %.pre.i, %.Vec_IntGrow.exit10_crit_edge.i ], [ %37, %36 ], [ %26, %Vec_IntGrow.exit.i ]
  %39 = load i32, ptr %6, align 4, !tbaa !28
  %40 = add nsw i32 %39, 1
  store i32 %40, ptr %6, align 4, !tbaa !28
  %41 = sext i32 %39 to i64
  %42 = getelementptr inbounds i32, ptr %38, i64 %41
  store i32 %11, ptr %42, align 4, !tbaa !31
  %43 = getelementptr inbounds nuw i8, ptr %.06, i64 4
  %44 = getelementptr inbounds nuw i8, ptr %.0225, i64 4
  br label %51

45:                                               ; preds = %10
  %46 = icmp slt i32 %11, %12
  br i1 %46, label %47, label %49

47:                                               ; preds = %45
  %48 = getelementptr inbounds nuw i8, ptr %.06, i64 4
  br label %51

49:                                               ; preds = %45
  %50 = getelementptr inbounds nuw i8, ptr %.0225, i64 4
  br label %51

51:                                               ; preds = %47, %49, %Vec_IntPush.exit
  %.123 = phi ptr [ %44, %Vec_IntPush.exit ], [ %.0225, %47 ], [ %50, %49 ]
  %.1 = phi ptr [ %43, %Vec_IntPush.exit ], [ %48, %47 ], [ %.06, %49 ]
  %52 = icmp ult ptr %.1, %3
  %53 = icmp ult ptr %.123, %5
  %54 = select i1 %52, i1 %53, i1 false
  br i1 %54, label %10, label %._crit_edge, !llvm.loop !54

._crit_edge:                                      ; preds = %51, %1
  ret void
}